; Function Attrs: mustprogress uwtable
define dso_local void @_ZN34cmExternalMakefileProjectGenerator23CreateFullGeneratorNameERKNSt7__cxx1112basic_stringIcSt11char_traitsIcESaIcEEES7_(ptr dead_on_unwind noalias writable sret(%"class.std::__cxx11::basic_string") align 8 %0, ptr noundef nonnull align 8 dereferenceable(32) %1, ptr noundef nonnull align 8 dereferenceable(32) %2) local_unnamed_addr #1 align 2 personality ptr @__gxx_personality_v0 {
  %4 = alloca [3 x %"struct.std::pair"], align 8
  %5 = tail call noundef zeroext i1 @_ZNKSt7__cxx1112basic_stringIcSt11char_traitsIcESaIcEE5emptyEv(ptr noundef nonnull align 8 dereferenceable(32) %1) #14
  br i1 %5, label %6, label %7

6:                                                ; preds = %3
  tail call void @_ZNSt7__cxx1112basic_stringIcSt11char_traitsIcESaIcEEC1Ev(ptr noundef nonnull align 8 dereferenceable(32) %0) #14
  br label %22

7:                                                ; preds = %3
  %8 = tail call noundef zeroext i1 @_ZNKSt7__cxx1112basic_stringIcSt11char_traitsIcESaIcEE5emptyEv(ptr noundef nonnull align 8 dereferenceable(32) %2) #14
  br i1 %8, label %9, label %10

9:                                                ; preds = %7
  tail call void @_ZNSt7__cxx1112basic_stringIcSt11char_traitsIcESaIcEEC1ERKS4_(ptr noundef nonnull align 8 dereferenceable(32) %0, ptr noundef nonnull align 8 dereferenceable(32) %1)
  br label %22

10:                                               ; preds = %7
  call void @llvm.lifetime.start.p0(i64 72, ptr nonnull %4)
  %11 = tail call { i64, ptr } @_ZNKSt7__cxx1112basic_stringIcSt11char_traitsIcESaIcEEcvSt17basic_string_viewIcS2_EEv(ptr noundef nonnull align 8 dereferenceable(32) %2) #14, !noalias !5
  %12 = extractvalue { i64, ptr } %11, 0
  %13 = extractvalue { i64, ptr } %11, 1
  store i64 %12, ptr %4, align 8, !alias.scope !8, !noalias !5
  %.sroa.2.0..sroa_idx.i.i = getelementptr inbounds i8, ptr %4, i64 8
  store ptr %13, ptr %.sroa.2.0..sroa_idx.i.i, align 8, !alias.scope !8, !noalias !5
  %14 = getelementptr inbounds i8, ptr %4, i64 16
  store ptr null, ptr %14, align 8, !alias.scope !8, !noalias !5
  %15 = getelementptr inbounds i8, ptr %4, i64 24
  store i64 3, ptr %15, align 8, !alias.scope !11, !noalias !5
  %.sroa.2.0..sroa_idx.i7.i = getelementptr inbounds i8, ptr %4, i64 32
  store ptr @.str, ptr %.sroa.2.0..sroa_idx.i7.i, align 8, !alias.scope !11, !noalias !5
  %16 = getelementptr inbounds i8, ptr %4, i64 40
  store ptr null, ptr %16, align 8, !alias.scope !11, !noalias !5
  %17 = getelementptr inbounds i8, ptr %4, i64 48
  %18 = tail call { i64, ptr } @_ZNKSt7__cxx1112basic_stringIcSt11char_traitsIcESaIcEEcvSt17basic_string_viewIcS2_EEv(ptr noundef nonnull align 8 dereferenceable(32) %1) #14, !noalias !5
  %19 = extractvalue { i64, ptr } %18, 0
  %20 = extractvalue { i64, ptr } %18, 1
  store i64 %19, ptr %17, align 8, !alias.scope !14, !noalias !5
  %.sroa.2.0..sroa_idx.i16.i = getelementptr inbounds i8, ptr %4, i64 56
  store ptr %20, ptr %.sroa.2.0..sroa_idx.i16.i, align 8, !alias.scope !14, !noalias !5
  %21 = getelementptr inbounds i8, ptr %4, i64 64
  store ptr null, ptr %21, align 8, !alias.scope !14, !noalias !5
  call void @_Z10cmCatViewsSt16initializer_listISt4pairISt17basic_string_viewIcSt11char_traitsIcEEPNSt7__cxx1112basic_stringIcS3_SaIcEEEEE(ptr dead_on_unwind writable sret(%"class.std::__cxx11::basic_string") align 8 %0, ptr nonnull %4, i64 3)
  call void @llvm.lifetime.end.p0(i64 72, ptr nonnull %4)
  br label %22

22:                                               ; preds = %10, %9, %6
  ret void
}